target datalayout = "e-m:e-p270:32:32-p271:32:32-p272:64:64-i64:64-i128:128-f80:128-n8:16:32:64-S128"
target triple = "x86_64-pc-linux-gnu"

%struct.tsi_peer_property = type { ptr, %struct.anon }
%struct.anon = type { ptr, i64 }
%struct.tsi_peer = type { ptr, i64 }
%struct.grpc_auth_property_iterator = type { ptr, i64, ptr }
%struct.grpc_auth_property = type { ptr, ptr, i64 }

@.str.11 = private unnamed_addr constant [13 x i8] c"x509_subject\00", align 1
@.str.12 = private unnamed_addr constant [25 x i8] c"x509_subject_common_name\00", align 1
@.str.13 = private unnamed_addr constant [17 x i8] c"x509_common_name\00", align 1
@.str.14 = private unnamed_addr constant [30 x i8] c"x509_subject_alternative_name\00", align 1
@.str.15 = private unnamed_addr constant [14 x i8] c"x509_pem_cert\00", align 1
@.str.16 = private unnamed_addr constant [20 x i8] c"x509_pem_cert_chain\00", align 1
@.str.18 = private unnamed_addr constant [15 x i8] c"security_level\00", align 1
@.str.19 = private unnamed_addr constant [9 x i8] c"x509_dns\00", align 1
@.str.20 = private unnamed_addr constant [9 x i8] c"peer_dns\00", align 1
@.str.21 = private unnamed_addr constant [9 x i8] c"x509_uri\00", align 1
@.str.22 = private unnamed_addr constant [9 x i8] c"peer_uri\00", align 1
@.str.23 = private unnamed_addr constant [11 x i8] c"x509_email\00", align 1
@.str.24 = private unnamed_addr constant [11 x i8] c"peer_email\00", align 1
@.str.25 = private unnamed_addr constant [8 x i8] c"x509_ip\00", align 1
@.str.26 = private unnamed_addr constant [8 x i8] c"peer_ip\00", align 1
@.str.30 = private unnamed_addr constant [15 x i8] c"peer_spiffe_id\00", align 1

; Function Attrs: mustprogress nounwind uwtable
define internal void @_ZL33add_shallow_auth_property_to_peerP8tsi_peerPK18grpc_auth_propertyPKc(ptr noundef %0, ptr noundef %1, ptr noundef %2) #4 {
  %4 = alloca ptr, align 8
  %5 = alloca ptr, align 8
  %6 = alloca ptr, align 8
  %7 = alloca ptr, align 8
  store ptr %0, ptr %4, align 8, !tbaa !17
  store ptr %1, ptr %5, align 8, !tbaa !62
  store ptr %2, ptr %6, align 8, !tbaa !7
  call void @llvm.lifetime.start.p0(i64 8, ptr %7) #3
  %8 = load ptr, ptr %4, align 8, !tbaa !17
  %9 = getelementptr inbounds nuw %struct.tsi_peer, ptr %8, i32 0, i32 0
  %10 = load ptr, ptr %9, align 8, !tbaa !60
  %11 = load ptr, ptr %4, align 8, !tbaa !17
  %12 = getelementptr inbounds nuw %struct.tsi_peer, ptr %11, i32 0, i32 1
  %13 = load i64, ptr %12, align 8, !tbaa !80
  %14 = add i64 %13, 1
  store i64 %14, ptr %12, align 8, !tbaa !80
  %15 = getelementptr inbounds nuw %struct.tsi_peer_property, ptr %10, i64 %13
  store ptr %15, ptr %7, align 8, !tbaa !19
  %16 = load ptr, ptr %6, align 8, !tbaa !7
  %17 = load ptr, ptr %7, align 8, !tbaa !19
  %18 = getelementptr inbounds nuw %struct.tsi_peer_property, ptr %17, i32 0, i32 0
  store ptr %16, ptr %18, align 8, !tbaa !83
  %19 = load ptr, ptr %5, align 8, !tbaa !62
  %20 = getelementptr inbounds nuw %struct.grpc_auth_property, ptr %19, i32 0, i32 1
  %21 = load ptr, ptr %20, align 8, !tbaa !95
  %22 = load ptr, ptr %7, align 8, !tbaa !19
  %23 = getelementptr inbounds nuw %struct.tsi_peer_property, ptr %22, i32 0, i32 1
  %24 = getelementptr inbounds nuw %struct.anon, ptr %23, i32 0, i32 0
  store ptr %21, ptr %24, align 8, !tbaa !21
  %25 = load ptr, ptr %5, align 8, !tbaa !62
  %26 = getelementptr inbounds nuw %struct.grpc_auth_property, ptr %25, i32 0, i32 2
  %27 = load i64, ptr %26, align 8, !tbaa !96
  %28 = load ptr, ptr %7, align 8, !tbaa !19
  %29 = getelementptr inbounds nuw %struct.tsi_peer_property, ptr %28, i32 0, i32 1
  %30 = getelementptr inbounds nuw %struct.anon, ptr %29, i32 0, i32 1
  store i64 %27, ptr %30, align 8, !tbaa !25
  call void @llvm.lifetime.end.p0(i64 8, ptr %7) #3
  ret void
}

; Function Attrs: mustprogress uwtable
define { ptr, i64 } @_Z39grpc_shallow_peer_from_ssl_auth_contextPK17grpc_auth_context(ptr noundef %0) #5 {
  %2 = alloca %struct.tsi_peer, align 8
  %3 = alloca ptr, align 8
  %4 = alloca i64, align 8
  %5 = alloca %struct.grpc_auth_property_iterator, align 8
  %6 = alloca ptr, align 8
  %7 = alloca %struct.grpc_auth_property_iterator, align 8
  %8 = alloca %struct.grpc_auth_property_iterator, align 8
  store ptr %0, ptr %3, align 8, !tbaa !54
  call void @llvm.lifetime.start.p0(i64 8, ptr %4) #3
  store i64 0, ptr %4, align 8, !tbaa !42
  call void @llvm.lifetime.start.p0(i64 24, ptr %5) #3
  call void @llvm.lifetime.start.p0(i64 8, ptr %6) #3
  call void @llvm.memset.p0.i64(ptr align 8 %2, i8 0, i64 16, i1 false)
  call void @llvm.lifetime.start.p0(i64 24, ptr %7) #3
  %9 = load ptr, ptr %3, align 8, !tbaa !54
  call void @grpc_auth_context_property_iterator(ptr dead_on_unwind writable sret(%struct.grpc_auth_property_iterator) align 8 %7, ptr noundef %9)
  call void @llvm.memcpy.p0.p0.i64(ptr align 8 %5, ptr align 8 %7, i64 24, i1 false), !tbaa.struct !58
  call void @llvm.lifetime.end.p0(i64 24, ptr %7) #3
  br label %10

10:                                               ; preds = %13, %1
  %11 = call ptr @grpc_auth_property_iterator_next(ptr noundef %5)
  %12 = icmp ne ptr %11, null
  br i1 %12, label %13, label %16

13:                                               ; preds = %10
  %14 = load i64, ptr %4, align 8, !tbaa !42
  %15 = add i64 %14, 1
  store i64 %15, ptr %4, align 8, !tbaa !42
  br label %10, !llvm.loop !59

16:                                               ; preds = %10
  %17 = load i64, ptr %4, align 8, !tbaa !42
  %18 = icmp ugt i64 %17, 0
  br i1 %18, label %19, label %128

19:                                               ; preds = %16
  %20 = load i64, ptr %4, align 8, !tbaa !42
  %21 = mul i64 %20, 24
  %22 = call ptr @gpr_malloc(i64 noundef %21)
  %23 = getelementptr inbounds nuw %struct.tsi_peer, ptr %2, i32 0, i32 0
  store ptr %22, ptr %23, align 8, !tbaa !60
  call void @llvm.lifetime.start.p0(i64 24, ptr %8) #3
  %24 = load ptr, ptr %3, align 8, !tbaa !54
  call void @grpc_auth_context_property_iterator(ptr dead_on_unwind writable sret(%struct.grpc_auth_property_iterator) align 8 %8, ptr noundef %24)
  call void @llvm.memcpy.p0.p0.i64(ptr align 8 %5, ptr align 8 %8, i64 24, i1 false), !tbaa.struct !58
  call void @llvm.lifetime.end.p0(i64 24, ptr %8) #3
  br label %25

25:                                               ; preds = %126, %19
  %26 = call ptr @grpc_auth_property_iterator_next(ptr noundef %5)
  store ptr %26, ptr %6, align 8, !tbaa !62
  %27 = icmp ne ptr %26, null
  br i1 %27, label %28, label %127

28:                                               ; preds = %25
  %29 = load ptr, ptr %6, align 8, !tbaa !62
  %30 = getelementptr inbounds nuw %struct.grpc_auth_property, ptr %29, i32 0, i32 0
  %31 = load ptr, ptr %30, align 8, !tbaa !64
  %32 = call i32 @strcmp(ptr noundef %31, ptr noundef @.str.14) #29
  %33 = icmp eq i32 %32, 0
  br i1 %33, label %34, label %36

34:                                               ; preds = %28
  %35 = load ptr, ptr %6, align 8, !tbaa !62
  call void @_ZL33add_shallow_auth_property_to_peerP8tsi_peerPK18grpc_auth_propertyPKc(ptr noundef %2, ptr noundef %35, ptr noundef @.str.14)
  br label %126

36:                                               ; preds = %28
  %37 = load ptr, ptr %6, align 8, !tbaa !62
  %38 = getelementptr inbounds nuw %struct.grpc_auth_property, ptr %37, i32 0, i32 0
  %39 = load ptr, ptr %38, align 8, !tbaa !64
  %40 = call i32 @strcmp(ptr noundef %39, ptr noundef @.str.11) #29
  %41 = icmp eq i32 %40, 0
  br i1 %41, label %42, label %44

42:                                               ; preds = %36
  %43 = load ptr, ptr %6, align 8, !tbaa !62
  call void @_ZL33add_shallow_auth_property_to_peerP8tsi_peerPK18grpc_auth_propertyPKc(ptr noundef %2, ptr noundef %43, ptr noundef @.str.11)
  br label %125

44:                                               ; preds = %36
  %45 = load ptr, ptr %6, align 8, !tbaa !62
  %46 = getelementptr inbounds nuw %struct.grpc_auth_property, ptr %45, i32 0, i32 0
  %47 = load ptr, ptr %46, align 8, !tbaa !64
  %48 = call i32 @strcmp(ptr noundef %47, ptr noundef @.str.13) #29
  %49 = icmp eq i32 %48, 0
  br i1 %49, label %50, label %52

50:                                               ; preds = %44
  %51 = load ptr, ptr %6, align 8, !tbaa !62
  call void @_ZL33add_shallow_auth_property_to_peerP8tsi_peerPK18grpc_auth_propertyPKc(ptr noundef %2, ptr noundef %51, ptr noundef @.str.12)
  br label %124

52:                                               ; preds = %44
  %53 = load ptr, ptr %6, align 8, !tbaa !62
  %54 = getelementptr inbounds nuw %struct.grpc_auth_property, ptr %53, i32 0, i32 0
  %55 = load ptr, ptr %54, align 8, !tbaa !64
  %56 = call i32 @strcmp(ptr noundef %55, ptr noundef @.str.15) #29
  %57 = icmp eq i32 %56, 0
  br i1 %57, label %58, label %60

58:                                               ; preds = %52
  %59 = load ptr, ptr %6, align 8, !tbaa !62
  call void @_ZL33add_shallow_auth_property_to_peerP8tsi_peerPK18grpc_auth_propertyPKc(ptr noundef %2, ptr noundef %59, ptr noundef @.str.15)
  br label %123

60:                                               ; preds = %52
  %61 = load ptr, ptr %6, align 8, !tbaa !62
  %62 = getelementptr inbounds nuw %struct.grpc_auth_property, ptr %61, i32 0, i32 0
  %63 = load ptr, ptr %62, align 8, !tbaa !64
  %64 = call i32 @strcmp(ptr noundef %63, ptr noundef @.str.18) #29
  %65 = icmp eq i32 %64, 0
  br i1 %65, label %66, label %68

66:                                               ; preds = %60
  %67 = load ptr, ptr %6, align 8, !tbaa !62
  call void @_ZL33add_shallow_auth_property_to_peerP8tsi_peerPK18grpc_auth_propertyPKc(ptr noundef %2, ptr noundef %67, ptr noundef @.str.18)
  br label %122

68:                                               ; preds = %60
  %69 = load ptr, ptr %6, align 8, !tbaa !62
  %70 = getelementptr inbounds nuw %struct.grpc_auth_property, ptr %69, i32 0, i32 0
  %71 = load ptr, ptr %70, align 8, !tbaa !64
  %72 = call i32 @strcmp(ptr noundef %71, ptr noundef @.str.16) #29
  %73 = icmp eq i32 %72, 0
  br i1 %73, label %74, label %76

74:                                               ; preds = %68
  %75 = load ptr, ptr %6, align 8, !tbaa !62
  call void @_ZL33add_shallow_auth_property_to_peerP8tsi_peerPK18grpc_auth_propertyPKc(ptr noundef %2, ptr noundef %75, ptr noundef @.str.16)
  br label %121

76:                                               ; preds = %68
  %77 = load ptr, ptr %6, align 8, !tbaa !62
  %78 = getelementptr inbounds nuw %struct.grpc_auth_property, ptr %77, i32 0, i32 0
  %79 = load ptr, ptr %78, align 8, !tbaa !64
  %80 = call i32 @strcmp(ptr noundef %79, ptr noundef @.str.20) #29
  %81 = icmp eq i32 %80, 0
  br i1 %81, label %82, label %84

82:                                               ; preds = %76
  %83 = load ptr, ptr %6, align 8, !tbaa !62
  call void @_ZL33add_shallow_auth_property_to_peerP8tsi_peerPK18grpc_auth_propertyPKc(ptr noundef %2, ptr noundef %83, ptr noundef @.str.19)
  br label %120

84:                                               ; preds = %76
  %85 = load ptr, ptr %6, align 8, !tbaa !62
  %86 = getelementptr inbounds nuw %struct.grpc_auth_property, ptr %85, i32 0, i32 0
  %87 = load ptr, ptr %86, align 8, !tbaa !64
  %88 = call i32 @strcmp(ptr noundef %87, ptr noundef @.str.22) #29
  %89 = icmp eq i32 %88, 0
  br i1 %89, label %90, label %92

90:                                               ; preds = %84
  %91 = load ptr, ptr %6, align 8, !tbaa !62
  call void @_ZL33add_shallow_auth_property_to_peerP8tsi_peerPK18grpc_auth_propertyPKc(ptr noundef %2, ptr noundef %91, ptr noundef @.str.21)
  br label %119

92:                                               ; preds = %84
  %93 = load ptr, ptr %6, align 8, !tbaa !62
  %94 = getelementptr inbounds nuw %struct.grpc_auth_property, ptr %93, i32 0, i32 0
  %95 = load ptr, ptr %94, align 8, !tbaa !64
  %96 = call i32 @strcmp(ptr noundef %95, ptr noundef @.str.30) #29
  %97 = icmp eq i32 %96, 0
  br i1 %97, label %98, label %100

98:                                               ; preds = %92
  %99 = load ptr, ptr %6, align 8, !tbaa !62
  call void @_ZL33add_shallow_auth_property_to_peerP8tsi_peerPK18grpc_auth_propertyPKc(ptr noundef %2, ptr noundef %99, ptr noundef @.str.21)
  br label %118

100:                                              ; preds = %92
  %101 = load ptr, ptr %6, align 8, !tbaa !62
  %102 = getelementptr inbounds nuw %struct.grpc_auth_property, ptr %101, i32 0, i32 0
  %103 = load ptr, ptr %102, align 8, !tbaa !64
  %104 = call i32 @strcmp(ptr noundef %103, ptr noundef @.str.24) #29
  %105 = icmp eq i32 %104, 0
  br i1 %105, label %106, label %108

106:                                              ; preds = %100
  %107 = load ptr, ptr %6, align 8, !tbaa !62
  call void @_ZL33add_shallow_auth_property_to_peerP8tsi_peerPK18grpc_auth_propertyPKc(ptr noundef %2, ptr noundef %107, ptr noundef @.str.23)
  br label %117

108:                                              ; preds = %100
  %109 = load ptr, ptr %6, align 8, !tbaa !62
  %110 = getelementptr inbounds nuw %struct.grpc_auth_property, ptr %109, i32 0, i32 0
  %111 = load ptr, ptr %110, align 8, !tbaa !64
  %112 = call i32 @strcmp(ptr noundef %111, ptr noundef @.str.26) #29
  %113 = icmp eq i32 %112, 0
  br i1 %113, label %114, label %116

114:                                              ; preds = %108
  %115 = load ptr, ptr %6, align 8, !tbaa !62
  call void @_ZL33add_shallow_auth_property_to_peerP8tsi_peerPK18grpc_auth_propertyPKc(ptr noundef %2, ptr noundef %115, ptr noundef @.str.25)
  br label %116

116:                                              ; preds = %114, %108
  br label %117

117:                                              ; preds = %116, %106
  br label %118

118:                                              ; preds = %117, %98
  br label %119

119:                                              ; preds = %118, %90
  br label %120

120:                                              ; preds = %119, %82
  br label %121

121:                                              ; preds = %120, %74
  br label %122

122:                                              ; preds = %121, %66
  br label %123

123:                                              ; preds = %122, %58
  br label %124

124:                                              ; preds = %123, %50
  br label %125

125:                                              ; preds = %124, %42
  br label %126

126:                                              ; preds = %125, %34
  br label %25, !llvm.loop !66

127:                                              ; preds = %25
  br label %128

128:                                              ; preds = %127, %16
  call void @llvm.lifetime.end.p0(i64 8, ptr %6) #3
  call void @llvm.lifetime.end.p0(i64 24, ptr %5) #3
  call void @llvm.lifetime.end.p0(i64 8, ptr %4) #3
  %129 = load { ptr, i64 }, ptr %2, align 8
  ret { ptr, i64 } %129
}