; Function Attrs: mustprogress uwtable
define { ptr, i64 } @_Z39grpc_shallow_peer_from_ssl_auth_contextPK17grpc_auth_context(ptr noundef %0) local_unnamed_addr #4 {
  %2 = alloca %struct.grpc_auth_property_iterator, align 8
  %3 = alloca %struct.grpc_auth_property_iterator, align 8
  call void @llvm.lifetime.start.p0(i64 24, ptr nonnull %2) #30
  call void @grpc_auth_context_property_iterator(ptr dead_on_unwind nonnull writable sret(%struct.grpc_auth_property_iterator) align 8 %2, ptr noundef %0)
  br label %4

4:                                                ; preds = %4, %1
  %.0 = phi i64 [ 0, %1 ], [ %6, %4 ]
  %5 = call ptr @grpc_auth_property_iterator_next(ptr noundef nonnull %2)
  %.not = icmp eq ptr %5, null
  %6 = add i64 %.0, 1
  br i1 %.not, label %7, label %4, !llvm.loop !49

7:                                                ; preds = %4
  %.not27 = icmp eq i64 %.0, 0
  br i1 %.not27, label %.loopexit, label %8

8:                                                ; preds = %7
  %9 = mul i64 %.0, 24
  %10 = call ptr @gpr_malloc(i64 noundef %9)
  call void @llvm.lifetime.start.p0(i64 24, ptr nonnull %3) #30
  call void @grpc_auth_context_property_iterator(ptr dead_on_unwind nonnull writable sret(%struct.grpc_auth_property_iterator) align 8 %3, ptr noundef %0)
  call void @llvm.memcpy.p0.p0.i64(ptr noundef nonnull align 8 dereferenceable(24) %2, ptr noundef nonnull align 8 dereferenceable(24) %3, i64 24, i1 false), !tbaa.struct !50
  call void @llvm.lifetime.end.p0(i64 24, ptr nonnull %3) #30
  %11 = call ptr @grpc_auth_property_iterator_next(ptr noundef nonnull %2)
  %.not2871 = icmp eq ptr %11, null
  br i1 %.not2871, label %.loopexit, label %.lr.ph

.lr.ph:                                           ; preds = %8, %52
  %12 = phi ptr [ %53, %52 ], [ %11, %8 ]
  %.sroa.14.172 = phi i64 [ %.sroa.14.2, %52 ], [ 0, %8 ]
  %13 = load ptr, ptr %12, align 8, !tbaa !53
  %14 = call i32 @strcmp(ptr noundef nonnull dereferenceable(1) %13, ptr noundef nonnull dereferenceable(30) @.str.14) #36
  %15 = icmp eq i32 %14, 0
  br i1 %15, label %.sink.split, label %16

16:                                               ; preds = %.lr.ph
  %17 = call i32 @strcmp(ptr noundef nonnull dereferenceable(1) %13, ptr noundef nonnull dereferenceable(13) @.str.11) #36
  %18 = icmp eq i32 %17, 0
  br i1 %18, label %.sink.split, label %19

19:                                               ; preds = %16
  %20 = call i32 @strcmp(ptr noundef nonnull dereferenceable(1) %13, ptr noundef nonnull dereferenceable(17) @.str.13) #36
  %21 = icmp eq i32 %20, 0
  br i1 %21, label %.sink.split, label %22

22:                                               ; preds = %19
  %23 = call i32 @strcmp(ptr noundef nonnull dereferenceable(1) %13, ptr noundef nonnull dereferenceable(14) @.str.15) #36
  %24 = icmp eq i32 %23, 0
  br i1 %24, label %.sink.split, label %25

25:                                               ; preds = %22
  %26 = call i32 @strcmp(ptr noundef nonnull dereferenceable(1) %13, ptr noundef nonnull dereferenceable(15) @.str.18) #36
  %27 = icmp eq i32 %26, 0
  br i1 %27, label %.sink.split, label %28

28:                                               ; preds = %25
  %29 = call i32 @strcmp(ptr noundef nonnull dereferenceable(1) %13, ptr noundef nonnull dereferenceable(20) @.str.16) #36
  %30 = icmp eq i32 %29, 0
  br i1 %30, label %.sink.split, label %31

31:                                               ; preds = %28
  %32 = call i32 @strcmp(ptr noundef nonnull dereferenceable(1) %13, ptr noundef nonnull dereferenceable(9) @.str.20) #36
  %33 = icmp eq i32 %32, 0
  br i1 %33, label %.sink.split, label %34

34:                                               ; preds = %31
  %35 = call i32 @strcmp(ptr noundef nonnull dereferenceable(1) %13, ptr noundef nonnull dereferenceable(9) @.str.22) #36
  %36 = icmp eq i32 %35, 0
  br i1 %36, label %.sink.split, label %37

37:                                               ; preds = %34
  %38 = call i32 @strcmp(ptr noundef nonnull dereferenceable(1) %13, ptr noundef nonnull dereferenceable(15) @.str.30) #36
  %39 = icmp eq i32 %38, 0
  br i1 %39, label %.sink.split, label %40

40:                                               ; preds = %37
  %41 = call i32 @strcmp(ptr noundef nonnull dereferenceable(1) %13, ptr noundef nonnull dereferenceable(11) @.str.24) #36
  %42 = icmp eq i32 %41, 0
  br i1 %42, label %.sink.split, label %43

43:                                               ; preds = %40
  %44 = call i32 @strcmp(ptr noundef nonnull dereferenceable(1) %13, ptr noundef nonnull dereferenceable(8) @.str.26) #36
  %45 = icmp eq i32 %44, 0
  br i1 %45, label %.sink.split, label %52

.sink.split:                                      ; preds = %43, %40, %37, %34, %31, %28, %25, %22, %19, %16, %.lr.ph
  %.str.11.sink = phi ptr [ @.str.14, %.lr.ph ], [ @.str.11, %16 ], [ @.str.12, %19 ], [ @.str.15, %22 ], [ @.str.18, %25 ], [ @.str.16, %28 ], [ @.str.19, %31 ], [ @.str.21, %34 ], [ @.str.21, %37 ], [ @.str.23, %40 ], [ @.str.25, %43 ]
  %46 = getelementptr i8, ptr %12, i64 8
  %.val30 = load ptr, ptr %46, align 8, !tbaa !55
  %47 = getelementptr i8, ptr %12, i64 16
  %.val31 = load i64, ptr %47, align 8, !tbaa !56
  %48 = add i64 %.sroa.14.172, 1
  %49 = getelementptr inbounds nuw %struct.tsi_peer_property, ptr %10, i64 %.sroa.14.172
  store ptr %.str.11.sink, ptr %49, align 8, !tbaa !57
  %50 = getelementptr inbounds nuw i8, ptr %49, i64 8
  store ptr %.val30, ptr %50, align 8, !tbaa !26
  %51 = getelementptr inbounds nuw i8, ptr %49, i64 16
  store i64 %.val31, ptr %51, align 8, !tbaa !29
  br label %52

52:                                               ; preds = %.sink.split, %43
  %.sroa.14.2 = phi i64 [ %.sroa.14.172, %43 ], [ %48, %.sink.split ]
  %53 = call ptr @grpc_auth_property_iterator_next(ptr noundef nonnull %2)
  %.not28 = icmp eq ptr %53, null
  br i1 %.not28, label %.loopexit, label %.lr.ph, !llvm.loop !58

.loopexit:                                        ; preds = %52, %8, %7
  %.sroa.0.0 = phi ptr [ null, %7 ], [ %10, %8 ], [ %10, %52 ]
  %.sroa.14.0 = phi i64 [ 0, %7 ], [ 0, %8 ], [ %.sroa.14.2, %52 ]
  call void @llvm.lifetime.end.p0(i64 24, ptr nonnull %2) #30
  %.fca.0.insert = insertvalue { ptr, i64 } poison, ptr %.sroa.0.0, 0
  %.fca.1.insert = insertvalue { ptr, i64 } %.fca.0.insert, i64 %.sroa.14.0, 1
  ret { ptr, i64 } %.fca.1.insert
}